Certificate:
    Data:
        Version: 3 (0x2)
        Serial Number: 1 (0x1)
    Signature Algorithm: sha256WithRSAEncryption
        Issuer: C=cn, ST=guang dong, L=guang zhou, O=eelly, CN=eelly.dev/emailAddress=runphp@qq.com
        Validity
            Not Before: Aug 12 06:56:40 2017 GMT
            Not After : Aug 12 06:56:40 2018 GMT
        Subject: C=cn, ST=guang dong, O=eelly, CN=eelly.dev/emailAddress=runphp@qq.com
        Subject Public Key Info:
            Public Key Algorithm: rsaEncryption
                Public-Key: (2048 bit)
                Modulus:
                    00:c7:4f:db:58:12:49:5d:70:8f:33:4a:0a:5a:79:
                    01:5b:45:35:b4:8d:fb:38:5c:5e:31:ee:f1:f8:8b:
                    ab:20:8e:fa:db:43:67:d9:ab:8a:62:87:1a:e8:24:
                    b0:e6:f2:4c:ec:a5:88:b7:ba:3f:74:6d:f4:17:18:
                    93:a7:bf:08:c1:19:47:1c:f6:7c:3c:67:6a:62:8f:
                    90:de:33:f8:1c:6f:2a:7b:58:40:47:8f:b9:8e:5d:
                    06:03:11:df:7d:49:e4:33:d9:e0:22:a8:3f:dc:9c:
                    6f:95:8f:5f:46:17:cc:dc:47:8c:00:2e:c9:7c:3b:
                    ce:0d:e7:ae:8e:bb:5d:0b:16:b5:21:e6:3a:e0:8d:
                    69:f1:c0:0f:72:67:f3:39:0c:10:67:c4:ee:16:32:
                    1e:c0:82:5e:e1:bc:09:df:4d:d8:af:fc:56:71:56:
                    e2:6d:32:39:1a:c0:64:69:d0:56:10:5d:72:d4:59:
                    6b:19:64:c4:66:31:e9:6c:1c:22:1e:0a:d3:c3:ee:
                    52:5a:22:ef:bd:e3:8e:e4:4c:c0:d3:ca:5c:5f:c3:
                    05:90:77:2e:72:c0:cb:a2:6c:85:ab:92:95:7f:72:
                    46:26:7d:f3:58:e7:6f:8d:83:a8:b6:1c:39:4c:5e:
                    53:ad:52:50:54:7b:85:49:4d:40:fa:2f:d3:75:35:
                    2b:e3
                Exponent: 65537 (0x10001)
        X509v3 extensions:
            X509v3 Basic Constraints: 
                CA:FALSE
            Netscape Comment: 
                OpenSSL Generated Certificate
            X509v3 Subject Key Identifier: 
                A0:70:CB:B8:F3:BD:11:F1:53:68:11:D7:CA:26:80:C2:5D:E2:F3:13
            X509v3 Authority Key Identifier: 
                keyid:67:49:87:47:CB:E8:0A:2F:CA:F4:79:24:55:9F:D0:F7:AD:C6:6F:43

    Signature Algorithm: sha256WithRSAEncryption
         80:14:cc:ce:ea:ea:cb:c8:15:5b:fe:ce:95:f0:0e:6b:5b:a1:
         94:bb:f8:80:20:66:a6:e4:8f:2c:f3:fb:da:2e:ce:f1:b9:03:
         19:8c:8c:cf:4e:d8:8e:04:3f:58:55:75:52:06:74:6b:26:96:
         c4:86:4d:d0:3d:32:7c:d2:ca:0c:f8:b3:e8:38:1f:ba:40:72:
         ee:f2:59:c0:a1:59:85:09:e5:53:e3:2d:6c:65:30:a3:8c:7a:
         aa:30:06:2a:d5:aa:b1:cc:32:4f:a4:7f:b2:65:d5:05:46:74:
         5d:fe:84:44:28:3a:20:4a:e4:4e:d5:79:67:ed:1a:cf:ae:ed:
         ea:c5:2d:4c:b3:77:86:67:ce:63:3f:3b:a4:89:54:46:1b:70:
         8a:a2:b1:3b:76:63:7d:65:ec:ed:45:da:88:cc:ca:13:04:db:
         9f:ec:ca:ab:29:ad:f3:13:79:7d:1b:2d:b3:fd:1d:5d:0c:42:
         9e:20:09:99:64:e4:ac:ed:b4:e6:ae:6f:e0:6d:d3:ab:43:5e:
         70:b2:51:f3:b6:28:39:cf:f0:61:1c:25:9c:7b:ff:55:03:97:
         d6:29:75:92:1c:d5:66:b7:a6:f4:e5:90:4a:5e:94:a8:44:ef:
         05:50:41:80:fa:c9:fb:3f:9e:fc:aa:77:7d:b1:e1:0b:a4:17:
         79:0a:60:d3
-----BEGIN CERTIFICATE-----
MIID0zCCArugAwIBAgIBATANBgkqhkiG9w0BAQsFADB5MQswCQYDVQQGEwJjbjET
MBEGA1UECAwKZ3VhbmcgZG9uZzETMBEGA1UEBwwKZ3VhbmcgemhvdTEOMAwGA1UE
CgwFZWVsbHkxEjAQBgNVBAMMCWVlbGx5LmRldjEcMBoGCSqGSIb3DQEJARYNcnVu
cGhwQHFxLmNvbTAeFw0xNzA4MTIwNjU2NDBaFw0xODA4MTIwNjU2NDBaMGQxCzAJ
BgNVBAYTAmNuMRMwEQYDVQQIDApndWFuZyBkb25nMQ4wDAYDVQQKDAVlZWxseTES
MBAGA1UEAwwJZWVsbHkuZGV2MRwwGgYJKoZIhvcNAQkBFg1ydW5waHBAcXEuY29t
MIIBIjANBgkqhkiG9w0BAQEFAAOCAQ8AMIIBCgKCAQEAx0/bWBJJXXCPM0oKWnkB
W0U1tI37OFxeMe7x+IurII7620Nn2auKYoca6CSw5vJM7KWIt7o/dG30FxiTp78I
wRlHHPZ8PGdqYo+Q3jP4HG8qe1hAR4+5jl0GAxHffUnkM9ngIqg/3JxvlY9fRhfM
3EeMAC7JfDvODeeujrtdCxa1IeY64I1p8cAPcmfzOQwQZ8TuFjIewIJe4bwJ303Y
r/xWcVbibTI5GsBkadBWEF1y1FlrGWTEZjHpbBwiHgrTw+5SWiLvveOO5EzA08pc
X8MFkHcucsDLomyFq5KVf3JGJn3zWOdvjYOothw5TF5TrVJQVHuFSU1A+i/TdTUr
4wIDAQABo3sweTAJBgNVHRMEAjAAMCwGCWCGSAGG+EIBDQQfFh1PcGVuU1NMIEdl
bmVyYXRlZCBDZXJ0aWZpY2F0ZTAdBgNVHQ4EFgQUoHDLuPO9EfFTaBHXyiaAwl3i
8xMwHwYDVR0jBBgwFoAUZ0mHR8voCi/K9HkkVZ/Q963Gb0MwDQYJKoZIhvcNAQEL
BQADggEBAIAUzM7q6svIFVv+zpXwDmtboZS7+IAgZqbkjyzz+9ouzvG5AxmMjM9O
2I4EP1hVdVIGdGsmlsSGTdA9MnzSygz4s+g4H7pAcu7yWcChWYUJ5VPjLWxlMKOM
eqowBirVqrHMMk+kf7Jl1QVGdF3+hEQoOiBK5E7VeWftGs+u7erFLUyzd4ZnzmM/
O6SJVEYbcIqisTt2Y31l7O1F2ojMyhME25/syqsprfMTeX0bLbP9HV0MQp4gCZlk
5KzttOaub+Bt06tDXnCyUfO2KDnP8GEcJZx7/1UDl9YpdZIc1Wa3pvTlkEpelKhE
7wVQQYD6yfs/nvyqd32x4QukF3kKYNM=
-----END CERTIFICATE-----
